; Function Attrs: mustprogress uwtable
define i32 @uloc_getParent_77(ptr noundef %0, ptr noundef %1, i32 noundef %2, ptr noundef %3) local_unnamed_addr #1 personality ptr @__gxx_personality_v0 {
  %5 = alloca %"class.icu_77::CheckedArrayByteSink", align 8
  %6 = load i32, ptr %3, align 4, !tbaa !13
  %7 = icmp slt i32 %6, 1
  br i1 %7, label %8, label %"_ZN6icu_7712ByteSinkUtil28viaByteSinkToTerminatedCharsIZ17uloc_getParent_77E3$_0vEEiPciOT_R10UErrorCode.exit"

8:                                                ; preds = %4
  call void @llvm.lifetime.start.p0(i64 32, ptr nonnull %5) #20
  call void @_ZN6icu_7720CheckedArrayByteSinkC1EPci(ptr noundef nonnull align 8 dereferenceable(29) %5, ptr noundef %1, i32 noundef %2)
  %.val19.i = load i32, ptr %3, align 4, !tbaa !13
  %9 = icmp slt i32 %.val19.i, 1
  br i1 %9, label %10, label %"_ZZ17uloc_getParent_77ENK3$_0clERN6icu_778ByteSinkER10UErrorCode.exit.thread.i"

10:                                               ; preds = %8
  %11 = icmp eq ptr %0, null
  br i1 %11, label %12, label %.noexc.i

12:                                               ; preds = %10
  %13 = invoke ptr @locale_get_default_77()
          to label %.noexc.i unwind label %28

.noexc.i:                                         ; preds = %12, %10
  %.012.i.i.i = phi ptr [ %0, %10 ], [ %13, %12 ]
  %14 = call noundef ptr @strrchr(ptr noundef nonnull dereferenceable(1) %.012.i.i.i, i32 noundef 95) #23
  %.not16.i.i.i = icmp eq ptr %14, null
  %15 = ptrtoint ptr %14 to i64
  %16 = ptrtoint ptr %.012.i.i.i to i64
  %17 = sub i64 %15, %16
  %18 = trunc i64 %17 to i32
  %.0.i.i.i = select i1 %.not16.i.i.i, i32 0, i32 %18
  %19 = icmp sgt i32 %.0.i.i.i, 0
  br i1 %19, label %20, label %"_ZZ17uloc_getParent_77ENK3$_0clERN6icu_778ByteSinkER10UErrorCode.exit.i"

20:                                               ; preds = %.noexc.i
  %21 = invoke i32 @uprv_strnicmp_77(ptr noundef nonnull %.012.i.i.i, ptr noundef nonnull @.str.4, i32 noundef 4)
          to label %.noexc20.i unwind label %28

.noexc20.i:                                       ; preds = %20
  %22 = icmp eq i32 %21, 0
  %23 = add nsw i32 %.0.i.i.i, -3
  %.113.idx.i.i.i = select i1 %22, i64 3, i64 0
  %.113.i.i.i = getelementptr inbounds nuw i8, ptr %.012.i.i.i, i64 %.113.idx.i.i.i
  %.1.i.i.i = select i1 %22, i32 %23, i32 %.0.i.i.i
  %24 = load ptr, ptr %5, align 8, !tbaa !32
  %25 = getelementptr inbounds nuw i8, ptr %24, i64 16
  %26 = load ptr, ptr %25, align 8
  invoke void %26(ptr noundef nonnull align 8 dereferenceable(8) %5, ptr noundef nonnull %.113.i.i.i, i32 noundef %.1.i.i.i)
          to label %"_ZZ17uloc_getParent_77ENK3$_0clERN6icu_778ByteSinkER10UErrorCode.exit.i" unwind label %28

"_ZZ17uloc_getParent_77ENK3$_0clERN6icu_778ByteSinkER10UErrorCode.exit.i": ; preds = %.noexc20.i, %.noexc.i
  %.pr.i = load i32, ptr %3, align 4, !tbaa !13
  %27 = icmp slt i32 %.pr.i, 1
  br i1 %27, label %30, label %"_ZZ17uloc_getParent_77ENK3$_0clERN6icu_778ByteSinkER10UErrorCode.exit.thread.i"

28:                                               ; preds = %.noexc20.i, %20, %12
  %29 = landingpad { ptr, i32 }
          cleanup
  br label %40

30:                                               ; preds = %"_ZZ17uloc_getParent_77ENK3$_0clERN6icu_778ByteSinkER10UErrorCode.exit.i"
  %31 = getelementptr inbounds nuw i8, ptr %5, i64 24
  %32 = load i32, ptr %31, align 8, !tbaa !35
  %33 = getelementptr inbounds nuw i8, ptr %5, i64 28
  %34 = load i8, ptr %33, align 4, !tbaa !38
  %.not17.i = icmp eq i8 %34, 0
  br i1 %.not17.i, label %36, label %35

35:                                               ; preds = %30
  store i32 15, ptr %3, align 4, !tbaa !13
  br label %"_ZZ17uloc_getParent_77ENK3$_0clERN6icu_778ByteSinkER10UErrorCode.exit.thread.i"

36:                                               ; preds = %30
  %37 = invoke i32 @u_terminateChars_77(ptr noundef %1, i32 noundef %2, i32 noundef %32, ptr noundef nonnull align 4 dereferenceable(4) %3)
          to label %"_ZZ17uloc_getParent_77ENK3$_0clERN6icu_778ByteSinkER10UErrorCode.exit.thread.i" unwind label %38

38:                                               ; preds = %36
  %39 = landingpad { ptr, i32 }
          cleanup
  br label %40

"_ZZ17uloc_getParent_77ENK3$_0clERN6icu_778ByteSinkER10UErrorCode.exit.thread.i": ; preds = %36, %35, %"_ZZ17uloc_getParent_77ENK3$_0clERN6icu_778ByteSinkER10UErrorCode.exit.i", %8
  %.1.i = phi i32 [ 0, %"_ZZ17uloc_getParent_77ENK3$_0clERN6icu_778ByteSinkER10UErrorCode.exit.i" ], [ %32, %35 ], [ %37, %36 ], [ 0, %8 ]
  call void @_ZN6icu_7720CheckedArrayByteSinkD1Ev(ptr noundef nonnull align 8 dereferenceable(29) %5) #20
  call void @llvm.lifetime.end.p0(i64 32, ptr nonnull %5) #20
  br label %"_ZN6icu_7712ByteSinkUtil28viaByteSinkToTerminatedCharsIZ17uloc_getParent_77E3$_0vEEiPciOT_R10UErrorCode.exit"

40:                                               ; preds = %38, %28
  %.pn.i = phi { ptr, i32 } [ %39, %38 ], [ %29, %28 ]
  call void @_ZN6icu_7720CheckedArrayByteSinkD1Ev(ptr noundef nonnull align 8 dereferenceable(29) %5) #20
  call void @llvm.lifetime.end.p0(i64 32, ptr nonnull %5) #20
  resume { ptr, i32 } %.pn.i

"_ZN6icu_7712ByteSinkUtil28viaByteSinkToTerminatedCharsIZ17uloc_getParent_77E3$_0vEEiPciOT_R10UErrorCode.exit": ; preds = %4, %"_ZZ17uloc_getParent_77ENK3$_0clERN6icu_778ByteSinkER10UErrorCode.exit.thread.i"
  %.0.i = phi i32 [ %.1.i, %"_ZZ17uloc_getParent_77ENK3$_0clERN6icu_778ByteSinkER10UErrorCode.exit.thread.i" ], [ 0, %4 ]
  ret i32 %.0.i
}